; Function Attrs: mustprogress nounwind uwtable
define internal fastcc void @_ZN10scoped_ptrIN12_GLOBAL__N_119elim_uncnstr_tactic2rwEED2Ev(ptr %.0.val) unnamed_addr #4 align 2 personality ptr @__gxx_personality_v0 {
  %1 = icmp eq ptr %.0.val, null
  br i1 %1, label %_Z7deallocIN12_GLOBAL__N_119elim_uncnstr_tactic2rwEEvPT_.exit, label %2

2:                                                ; preds = %0
  %3 = load ptr, ptr %.0.val, align 8, !tbaa !9
  %4 = load ptr, ptr %3, align 8
  tail call void %4(ptr noundef nonnull align 8 dereferenceable(856) %.0.val) #24
  invoke void @_ZN6memory10deallocateEPv(ptr noundef nonnull %.0.val)
          to label %_Z7deallocIN12_GLOBAL__N_119elim_uncnstr_tactic2rwEEvPT_.exit unwind label %5

_Z7deallocIN12_GLOBAL__N_119elim_uncnstr_tactic2rwEEvPT_.exit: ; preds = %0, %2
  ret void

5:                                                ; preds = %2
  %6 = landingpad { ptr, i32 }
          catch ptr null
  %7 = extractvalue { ptr, i32 } %6, 0
  tail call void @__clang_call_terminate(ptr %7) #25
  unreachable
}